-----BEGIN RSA PRIVATE KEY-----
Proc-Type: 4,ENCRYPTED
DEK-Info: AES-128-CBC,C7620DDD7919B7B2DEBC3E4662481235

ZJiAF6Wu787Vh4YJeimryyHMiWqPuJqWIg9umAMzgWnW7bmJakFlGOuDigo/nlnm
sxePHyAhCzc7dKOFyah8FqphN8CE9LYoriOIkvGKs1GpsAliA4VhfTga36siCgru
gMCCx3dOGwJuEtxZ9qrsrlWeNYNw+osiZtQFcjcCA0XGjq2ovGjBP3MWMHI1Kqsy
Q6ENBm+ZggCgfBslZuEhjEi24Tw66+KtH+UM/++5VnWDDa4NczeXbyOWdGWNn8Mq
d/sQQRcrbvzpSQp7P6BfTjAzJhiBZF7+RzlRmrHbd/CSpmnm+fm7sM2pz3ZGfCYd
WzNkA5mNZ8QMvxxT9MQn7ErTpqlvUGmbHEjfohgwfMXq3sW653Z3HEU/xeDcTfgm
W3Qd9x6z6IgUgilXy3Wj27wzM5eXhEQOF9vaHeMlpk6PMdBUlqeNmsYcYOovAktj
MPQiGCG7lC/MXkopMLcTc67AZ9P9yDMXOErK8lU+rcuf88g2JixaQiRHYyCY9rwU
v6k3uddBJ2FffZ1d7hl0ibwBopQ5JYNZmmnA1zb24f+rvPBZBdTx69MtAtnDOhC0
S0hby15A4afKTOvFOGWyjIKZrU+Hb6q1p2Wh77W6G5fZjcu1YXVDHviNS4mndQOm
/obtKknjjgseswSVodbeGgVaxK2V2SupNkNHt2ZODDqaNYrd8QZODGBBnaF9nXWc
Ni9vA1tJ27uhTS16Fqbf6wm+Z5beP2YP1OKyy89SWm1hfaBDbhc8CvjJ5vC2xxeg
mAk3FC52zk63LFe0dVmW1tPs1u7ob4wLlKEee7S8I9Gy6t4YA+a+t6hC4z/SQMJZ
-----END RSA PRIVATE KEY-----
Certificate:
    Data:
        Version: 3 (0x2)
        Serial Number: 4101 (0x1005)
    Signature Algorithm: sha1WithRSAEncryption
        Issuer: C=US, ST=Utah, L=Logan, O=Utah State University, OU=CS, CN=Venkatesh/emailAddress=venky.satya123@gmail.com
        Validity
            Not Before: Oct 10 21:09:17 2017 GMT
            Not After : Oct 10 21:09:17 2018 GMT
        Subject: C=US, ST=Utah, L=Logan, O=Utah State University, OU=CS, CN=PKILabServer.com/emailAddress=venky.satya123@gmail.com
        Subject Public Key Info:
            Public Key Algorithm: rsaEncryption
                Public-Key: (1024 bit)
                Modulus:
                    00:c0:e0:3c:b6:b1:62:0c:ad:5a:46:53:f5:a5:7f:
                    fe:3c:e8:33:e4:b2:90:f8:f0:1f:96:0d:7f:7b:09:
                    f5:bd:f3:89:76:80:f0:76:07:ca:78:c8:ea:42:c1:
                    d1:ea:23:b9:c2:85:c1:cc:85:2e:26:63:74:b6:f7:
                    10:ad:d8:41:ec:3f:29:12:c3:97:fb:56:34:0d:6b:
                    da:91:c9:e4:db:d4:3c:96:99:1d:fe:f6:16:6c:1a:
                    61:d0:14:b3:60:f0:f2:63:9f:6e:02:c9:52:7e:d9:
                    87:d7:76:51:5f:38:17:f6:11:29:14:62:97:e2:fd:
                    d7:ee:66:ca:0b:12:b6:8e:a1
                Exponent: 65537 (0x10001)
        X509v3 extensions:
            X509v3 Basic Constraints: 
                CA:FALSE
            Netscape Comment: 
                OpenSSL Generated Certificate
            X509v3 Subject Key Identifier: 
                C9:A6:05:77:A8:B3:8B:C2:06:C2:41:04:2B:AC:0E:CF:67:8A:1C:AF
            X509v3 Authority Key Identifier: 
                keyid:76:CF:70:98:F0:3D:79:18:41:37:58:E0:4A:27:E5:14:42:5B:84:00

    Signature Algorithm: sha1WithRSAEncryption
         a1:77:ae:c5:9c:03:07:2f:db:b4:1e:d3:1c:3b:5c:e2:82:28:
         4d:df:72:c1:65:9c:59:a3:1d:77:ca:18:fd:31:d6:ce:00:53:
         60:36:dc:61:ff:f4:23:93:e5:45:2e:f4:7a:67:7e:2d:0d:0a:
         9a:81:88:0b:77:cd:c6:28:6e:6f:37:85:5d:6b:29:51:b7:85:
         8f:af:f3:ba:20:ac:1c:5c:33:56:c0:d7:8d:04:7e:c1:a3:a7:
         f4:b7:8a:ed:8a:c2:6f:27:d4:f1:f6:a1:92:c1:cf:06:76:f2:
         dd:fb:ce:3f:4e:99:9f:b3:05:bd:8e:6c:94:35:07:40:0b:9e:
         b7:8e
-----BEGIN CERTIFICATE-----
MIIDJzCCApCgAwIBAgICEAUwDQYJKoZIhvcNAQEFBQAwgZYxCzAJBgNVBAYTAlVT
MQ0wCwYDVQQIDARVdGFoMQ4wDAYDVQQHDAVMb2dhbjEeMBwGA1UECgwVVXRhaCBT
dGF0ZSBVbml2ZXJzaXR5MQswCQYDVQQLDAJDUzESMBAGA1UEAwwJVmVua2F0ZXNo
MScwJQYJKoZIhvcNAQkBFhh2ZW5reS5zYXR5YTEyM0BnbWFpbC5jb20wHhcNMTcx
MDEwMjEwOTE3WhcNMTgxMDEwMjEwOTE3WjCBnTELMAkGA1UEBhMCVVMxDTALBgNV
BAgMBFV0YWgxDjAMBgNVBAcMBUxvZ2FuMR4wHAYDVQQKDBVVdGFoIFN0YXRlIFVu
aXZlcnNpdHkxCzAJBgNVBAsMAkNTMRkwFwYDVQQDDBBQS0lMYWJTZXJ2ZXIuY29t
MScwJQYJKoZIhvcNAQkBFhh2ZW5reS5zYXR5YTEyM0BnbWFpbC5jb20wgZ8wDQYJ
KoZIhvcNAQEBBQADgY0AMIGJAoGBAMDgPLaxYgytWkZT9aV//jzoM+SykPjwH5YN
f3sJ9b3ziXaA8HYHynjI6kLB0eojucKFwcyFLiZjdLb3EK3YQew/KRLDl/tWNA1r
2pHJ5NvUPJaZHf72FmwaYdAUs2Dw8mOfbgLJUn7Zh9d2UV84F/YRKRRil+L91+5m
ygsSto6hAgMBAAGjezB5MAkGA1UdEwQCMAAwLAYJYIZIAYb4QgENBB8WHU9wZW5T
U0wgR2VuZXJhdGVkIENlcnRpZmljYXRlMB0GA1UdDgQWBBTJpgV3qLOLwgbCQQQr
rA7PZ4ocrzAfBgNVHSMEGDAWgBR2z3CY8D15GEE3WOBKJ+UUQluEADANBgkqhkiG
9w0BAQUFAAOBgQChd67FnAMHL9u0HtMcO1zigihN33LBZZxZox13yhj9MdbOAFNg
Ntxh//Qjk+VFLvR6Z34tDQqagYgLd83GKG5vN4VdaylRt4WPr/O6IKwcXDNWwNeN
BH7Bo6f0t4rtisJvJ9Tx9qGSwc8GdvLd+84/TpmfswW9jmyUNQdAC563jg==
-----END CERTIFICATE-----
